target datalayout = "e-m:e-p270:32:32-p271:32:32-p272:64:64-i64:64-i128:128-f80:128-n8:16:32:64-S128"
target triple = "x86_64-pc-linux-gnu"

%"struct.llvm::Align" = type { i8 }
%"class.llvm::MachineFunction" = type <{ ptr, ptr, ptr, ptr, ptr, ptr, ptr, ptr, ptr, ptr, ptr, ptr, %"class.std::vector.49", i32, [4 x i8], %"class.llvm::BumpPtrAllocatorImpl", %"class.llvm::Recycler", %"class.llvm::ArrayRecycler", %"class.llvm::Recycler.65", %"class.llvm::iplist", i32, %"struct.llvm::Align", i8, i8, i8, %"class.llvm::MachineFunctionProperties", %"class.std::unique_ptr.66", %"class.std::vector.74", %"class.std::vector.79", %"class.std::vector.79", %"class.std::vector.84", %"class.llvm::DenseMap.89", %"class.llvm::DenseMap.92", %"class.llvm::DenseMap.95", %"class.std::vector.98", i8, i8, i8, i8, i8, i8, [2 x i8], i32, i32, %"class.std::vector.103", %"class.std::vector.108", %"class.std::vector.108", i32, [4 x i8], ptr, ptr, %"class.llvm::DenseMap.113", %"class.llvm::SmallVector.116", i32, [4 x i8], %"class.llvm::SmallVector.121", %"class.llvm::DenseMap.126", i8, [7 x i8] }>
%"class.std::vector.49" = type { %"struct.std::_Vector_base.50" }
%"struct.std::_Vector_base.50" = type { %"struct.std::_Vector_base<llvm::MachineBasicBlock *, std::allocator<llvm::MachineBasicBlock *>>::_Vector_impl" }
%"struct.std::_Vector_base<llvm::MachineBasicBlock *, std::allocator<llvm::MachineBasicBlock *>>::_Vector_impl" = type { %"struct.std::_Vector_base<llvm::MachineBasicBlock *, std::allocator<llvm::MachineBasicBlock *>>::_Vector_impl_data" }
%"struct.std::_Vector_base<llvm::MachineBasicBlock *, std::allocator<llvm::MachineBasicBlock *>>::_Vector_impl_data" = type { ptr, ptr, ptr }
%"class.llvm::BumpPtrAllocatorImpl" = type { ptr, ptr, %"class.llvm::SmallVector", %"class.llvm::SmallVector.55", i64, i64 }
%"class.llvm::SmallVector" = type { %"class.llvm::SmallVectorImpl", %"struct.llvm::SmallVectorStorage" }
%"class.llvm::SmallVectorImpl" = type { %"class.llvm::SmallVectorTemplateBase" }
%"class.llvm::SmallVectorTemplateBase" = type { %"class.llvm::SmallVectorTemplateCommon" }
%"class.llvm::SmallVectorTemplateCommon" = type { %"class.llvm::SmallVectorBase" }
%"class.llvm::SmallVectorBase" = type { ptr, i32, i32 }
%"struct.llvm::SmallVectorStorage" = type { [32 x i8] }
%"class.llvm::SmallVector.55" = type { %"class.llvm::SmallVectorImpl.56" }
%"class.llvm::SmallVectorImpl.56" = type { %"class.llvm::SmallVectorTemplateBase.57" }
%"class.llvm::SmallVectorTemplateBase.57" = type { %"class.llvm::SmallVectorTemplateCommon.58" }
%"class.llvm::SmallVectorTemplateCommon.58" = type { %"class.llvm::SmallVectorBase" }
%"class.llvm::Recycler" = type { ptr }
%"class.llvm::ArrayRecycler" = type { %"class.llvm::SmallVector.60" }
%"class.llvm::SmallVector.60" = type { %"class.llvm::SmallVectorImpl.61", %"struct.llvm::SmallVectorStorage.64" }
%"class.llvm::SmallVectorImpl.61" = type { %"class.llvm::SmallVectorTemplateBase.62" }
%"class.llvm::SmallVectorTemplateBase.62" = type { %"class.llvm::SmallVectorTemplateCommon.63" }
%"class.llvm::SmallVectorTemplateCommon.63" = type { %"class.llvm::SmallVectorBase" }
%"struct.llvm::SmallVectorStorage.64" = type { [64 x i8] }
%"class.llvm::Recycler.65" = type { ptr }
%"class.llvm::iplist" = type { %"class.llvm::iplist_impl" }
%"class.llvm::iplist_impl" = type { %"class.llvm::simple_ilist" }
%"class.llvm::simple_ilist" = type { %"class.llvm::ilist_sentinel" }
%"class.llvm::ilist_sentinel" = type { %"class.llvm::ilist_node_impl" }
%"class.llvm::ilist_node_impl" = type { %"class.llvm::ilist_node_base" }
%"class.llvm::ilist_node_base" = type { %"class.llvm::ilist_detail::node_base_prevnext" }
%"class.llvm::ilist_detail::node_base_prevnext" = type { ptr, ptr }
%"class.llvm::MachineFunctionProperties" = type { %"class.std::bitset" }
%"class.std::bitset" = type { %"struct.std::_Base_bitset" }
%"struct.std::_Base_bitset" = type { i64 }
%"class.std::unique_ptr.66" = type { %"struct.std::__uniq_ptr_data.67" }
%"struct.std::__uniq_ptr_data.67" = type { %"class.std::__uniq_ptr_impl.68" }
%"class.std::__uniq_ptr_impl.68" = type { %"class.std::tuple.69" }
%"class.std::tuple.69" = type { %"struct.std::_Tuple_impl.70" }
%"struct.std::_Tuple_impl.70" = type { %"struct.std::_Head_base.73" }
%"struct.std::_Head_base.73" = type { ptr }
%"class.std::vector.74" = type { %"struct.std::_Vector_base.75" }
%"struct.std::_Vector_base.75" = type { %"struct.std::_Vector_base<llvm::MCCFIInstruction, std::allocator<llvm::MCCFIInstruction>>::_Vector_impl" }
%"struct.std::_Vector_base<llvm::MCCFIInstruction, std::allocator<llvm::MCCFIInstruction>>::_Vector_impl" = type { %"struct.std::_Vector_base<llvm::MCCFIInstruction, std::allocator<llvm::MCCFIInstruction>>::_Vector_impl_data" }
%"struct.std::_Vector_base<llvm::MCCFIInstruction, std::allocator<llvm::MCCFIInstruction>>::_Vector_impl_data" = type { ptr, ptr, ptr }
%"class.std::vector.79" = type { %"struct.std::_Vector_base.80" }
%"struct.std::_Vector_base.80" = type { %"struct.std::_Vector_base<llvm::MCSymbol *, std::allocator<llvm::MCSymbol *>>::_Vector_impl" }
%"struct.std::_Vector_base<llvm::MCSymbol *, std::allocator<llvm::MCSymbol *>>::_Vector_impl" = type { %"struct.std::_Vector_base<llvm::MCSymbol *, std::allocator<llvm::MCSymbol *>>::_Vector_impl_data" }
%"struct.std::_Vector_base<llvm::MCSymbol *, std::allocator<llvm::MCSymbol *>>::_Vector_impl_data" = type { ptr, ptr, ptr }
%"class.std::vector.84" = type { %"struct.std::_Vector_base.85" }
%"struct.std::_Vector_base.85" = type { %"struct.std::_Vector_base<llvm::LandingPadInfo, std::allocator<llvm::LandingPadInfo>>::_Vector_impl" }
%"struct.std::_Vector_base<llvm::LandingPadInfo, std::allocator<llvm::LandingPadInfo>>::_Vector_impl" = type { %"struct.std::_Vector_base<llvm::LandingPadInfo, std::allocator<llvm::LandingPadInfo>>::_Vector_impl_data" }
%"struct.std::_Vector_base<llvm::LandingPadInfo, std::allocator<llvm::LandingPadInfo>>::_Vector_impl_data" = type { ptr, ptr, ptr }
%"class.llvm::DenseMap.89" = type <{ ptr, i32, i32, i32, [4 x i8] }>
%"class.llvm::DenseMap.92" = type <{ ptr, i32, i32, i32, [4 x i8] }>
%"class.llvm::DenseMap.95" = type <{ ptr, i32, i32, i32, [4 x i8] }>
%"class.std::vector.98" = type { %"struct.std::_Vector_base.99" }
%"struct.std::_Vector_base.99" = type { %"struct.std::_Vector_base<std::pair<llvm::MCSymbol *, llvm::MDNode *>, std::allocator<std::pair<llvm::MCSymbol *, llvm::MDNode *>>>::_Vector_impl" }
%"struct.std::_Vector_base<std::pair<llvm::MCSymbol *, llvm::MDNode *>, std::allocator<std::pair<llvm::MCSymbol *, llvm::MDNode *>>>::_Vector_impl" = type { %"struct.std::_Vector_base<std::pair<llvm::MCSymbol *, llvm::MDNode *>, std::allocator<std::pair<llvm::MCSymbol *, llvm::MDNode *>>>::_Vector_impl_data" }
%"struct.std::_Vector_base<std::pair<llvm::MCSymbol *, llvm::MDNode *>, std::allocator<std::pair<llvm::MCSymbol *, llvm::MDNode *>>>::_Vector_impl_data" = type { ptr, ptr, ptr }
%"class.std::vector.103" = type { %"struct.std::_Vector_base.104" }
%"struct.std::_Vector_base.104" = type { %"struct.std::_Vector_base<const llvm::GlobalValue *, std::allocator<const llvm::GlobalValue *>>::_Vector_impl" }
%"struct.std::_Vector_base<const llvm::GlobalValue *, std::allocator<const llvm::GlobalValue *>>::_Vector_impl" = type { %"struct.std::_Vector_base<const llvm::GlobalValue *, std::allocator<const llvm::GlobalValue *>>::_Vector_impl_data" }
%"struct.std::_Vector_base<const llvm::GlobalValue *, std::allocator<const llvm::GlobalValue *>>::_Vector_impl_data" = type { ptr, ptr, ptr }
%"class.std::vector.108" = type { %"struct.std::_Vector_base.109" }
%"struct.std::_Vector_base.109" = type { %"struct.std::_Vector_base<unsigned int, std::allocator<unsigned int>>::_Vector_impl" }
%"struct.std::_Vector_base<unsigned int, std::allocator<unsigned int>>::_Vector_impl" = type { %"struct.std::_Vector_base<unsigned int, std::allocator<unsigned int>>::_Vector_impl_data" }
%"struct.std::_Vector_base<unsigned int, std::allocator<unsigned int>>::_Vector_impl_data" = type { ptr, ptr, ptr }
%"class.llvm::DenseMap.113" = type <{ ptr, i32, i32, i32, [4 x i8] }>
%"class.llvm::SmallVector.116" = type { %"class.llvm::SmallVectorImpl.117", %"struct.llvm::SmallVectorStorage.120" }
%"class.llvm::SmallVectorImpl.117" = type { %"class.llvm::SmallVectorTemplateBase.118" }
%"class.llvm::SmallVectorTemplateBase.118" = type { %"class.llvm::SmallVectorTemplateCommon.119" }
%"class.llvm::SmallVectorTemplateCommon.119" = type { %"class.llvm::SmallVectorBase" }
%"struct.llvm::SmallVectorStorage.120" = type { [128 x i8] }
%"class.llvm::SmallVector.121" = type { %"class.llvm::SmallVectorImpl.122", %"struct.llvm::SmallVectorStorage.125" }
%"class.llvm::SmallVectorImpl.122" = type { %"class.llvm::SmallVectorTemplateBase.123" }
%"class.llvm::SmallVectorTemplateBase.123" = type { %"class.llvm::SmallVectorTemplateCommon.124" }
%"class.llvm::SmallVectorTemplateCommon.124" = type { %"class.llvm::SmallVectorBase" }
%"struct.llvm::SmallVectorStorage.125" = type { [160 x i8] }
%"class.llvm::DenseMap.126" = type <{ ptr, i32, i32, i32, [4 x i8] }>
%"class.llvm::AttributeList" = type { ptr }
%"class.llvm::GlobalValue" = type { %"class.llvm::Constant", ptr, i32, i32, ptr }
%"class.llvm::Constant" = type { %"class.llvm::User" }
%"class.llvm::User" = type { %"class.llvm::Value" }
%"class.llvm::Value" = type { i8, i8, i16, i32, ptr, ptr }
%"class.llvm::Function" = type { %"class.llvm::GlobalObject", %"class.llvm::ilist_node.504", %"class.llvm::SymbolTableList", i32, i32, ptr, i64, %"class.std::unique_ptr.514", %"class.llvm::AttributeList", i8, i32 }
%"class.llvm::GlobalObject" = type { %"class.llvm::GlobalValue", ptr }
%"class.llvm::ilist_node.504" = type { %"class.llvm::ilist_node_impl.505" }
%"class.llvm::ilist_node_impl.505" = type { %"class.llvm::ilist_node_base" }
%"class.llvm::SymbolTableList" = type { %"class.llvm::iplist_impl.507" }
%"class.llvm::iplist_impl.507" = type { %"class.llvm::simple_ilist.509" }
%"class.llvm::simple_ilist.509" = type { %"class.llvm::ilist_sentinel.511" }
%"class.llvm::ilist_sentinel.511" = type { %"class.llvm::ilist_node_impl.512" }
%"class.llvm::ilist_node_impl.512" = type { %"class.llvm::ilist_node_base" }
%"class.std::unique_ptr.514" = type { %"struct.std::__uniq_ptr_data.515" }
%"struct.std::__uniq_ptr_data.515" = type { %"class.std::__uniq_ptr_impl.516" }
%"class.std::__uniq_ptr_impl.516" = type { %"class.std::tuple.517" }
%"class.std::tuple.517" = type { %"struct.std::_Tuple_impl.518" }
%"struct.std::_Tuple_impl.518" = type { %"struct.std::_Head_base.521" }
%"struct.std::_Head_base.521" = type { ptr }
%"class.llvm::Argument" = type <{ %"class.llvm::Value", ptr, i32, [4 x i8] }>

@.str.32 = private unnamed_addr constant [65 x i8] c"Segmented stacks does not support fastcall with nested function.\00", align 1

; Function Attrs: mustprogress nounwind uwtable
define linkonce_odr hidden noundef zeroext i1 @_ZNK4llvm8Function16hasLazyArgumentsEv(ptr noundef nonnull align 8 dereferenceable(136) %0) #1 comdat align 2 {
  %2 = alloca ptr, align 8
  store ptr %0, ptr %2, align 8
  %3 = load ptr, ptr %2, align 8
  %4 = call noundef zeroext i16 @_ZNK4llvm5Value24getSubclassDataFromValueEv(ptr noundef nonnull align 8 dereferenceable(24) %3)
  %5 = zext i16 %4 to i32
  %6 = and i32 %5, 1
  %7 = icmp ne i32 %6, 0
  ret i1 %7
}

; Function Attrs: mustprogress nounwind uwtable
define linkonce_odr hidden void @_ZNK4llvm5Value26assertModuleIsMaterializedEv(ptr noundef nonnull align 8 dereferenceable(24) %0) #1 comdat align 2 {
  %2 = alloca ptr, align 8
  store ptr %0, ptr %2, align 8
  ret void
}

; Function Attrs: mustprogress nounwind uwtable
define linkonce_odr hidden void @_ZNK4llvm8Function18CheckLazyArgumentsEv(ptr noundef nonnull align 8 dereferenceable(136) %0) #1 comdat align 2 {
  %2 = alloca ptr, align 8
  store ptr %0, ptr %2, align 8
  %3 = load ptr, ptr %2, align 8
  %4 = call noundef zeroext i1 @_ZNK4llvm8Function16hasLazyArgumentsEv(ptr noundef nonnull align 8 dereferenceable(136) %3)
  br i1 %4, label %5, label %6

5:                                                ; preds = %1
  call void @_ZNK4llvm8Function18BuildLazyArgumentsEv(ptr noundef nonnull align 8 dereferenceable(136) %3)
  br label %6

6:                                                ; preds = %5, %1
  ret void
}

; Function Attrs: mustprogress nounwind uwtable
define linkonce_odr hidden noundef zeroext i1 @_ZNK4llvm5Value9use_emptyEv(ptr noundef nonnull align 8 dereferenceable(24) %0) #1 comdat align 2 {
  %2 = alloca ptr, align 8
  store ptr %0, ptr %2, align 8
  %3 = load ptr, ptr %2, align 8
  call void @_ZNK4llvm5Value26assertModuleIsMaterializedEv(ptr noundef nonnull align 8 dereferenceable(24) %3)
  %4 = getelementptr inbounds nuw %"class.llvm::Value", ptr %3, i32 0, i32 5
  %5 = load ptr, ptr %4, align 8
  %6 = icmp eq ptr %5, null
  ret i1 %6
}

; Function Attrs: mustprogress nounwind uwtable
define linkonce_odr hidden noundef ptr @_ZNK4llvm8Function7arg_endEv(ptr noundef nonnull align 8 dereferenceable(136) %0) #1 comdat align 2 {
  %2 = alloca ptr, align 8
  store ptr %0, ptr %2, align 8
  %3 = load ptr, ptr %2, align 8
  call void @_ZNK4llvm8Function18CheckLazyArgumentsEv(ptr noundef nonnull align 8 dereferenceable(136) %3)
  %4 = getelementptr inbounds nuw %"class.llvm::Function", ptr %3, i32 0, i32 5
  %5 = load ptr, ptr %4, align 8
  %6 = getelementptr inbounds nuw %"class.llvm::Function", ptr %3, i32 0, i32 6
  %7 = load i64, ptr %6, align 8
  %8 = getelementptr inbounds %"class.llvm::Argument", ptr %5, i64 %7
  ret ptr %8
}

; Function Attrs: mustprogress nounwind uwtable
define linkonce_odr hidden noundef ptr @_ZNK4llvm8Function9arg_beginEv(ptr noundef nonnull align 8 dereferenceable(136) %0) #1 comdat align 2 {
  %2 = alloca ptr, align 8
  store ptr %0, ptr %2, align 8
  %3 = load ptr, ptr %2, align 8
  call void @_ZNK4llvm8Function18CheckLazyArgumentsEv(ptr noundef nonnull align 8 dereferenceable(136) %3)
  %4 = getelementptr inbounds nuw %"class.llvm::Function", ptr %3, i32 0, i32 5
  %5 = load ptr, ptr %4, align 8
  ret ptr %5
}

; Function Attrs: mustprogress nounwind uwtable
define linkonce_odr hidden noundef zeroext i16 @_ZNK4llvm5Value24getSubclassDataFromValueEv(ptr noundef nonnull align 8 dereferenceable(24) %0) #1 comdat align 2 {
  %2 = alloca ptr, align 8
  store ptr %0, ptr %2, align 8
  %3 = load ptr, ptr %2, align 8
  %4 = getelementptr inbounds nuw %"class.llvm::Value", ptr %3, i32 0, i32 2
  %5 = load i16, ptr %4, align 2
  ret i16 %5
}

; Function Attrs: mustprogress nounwind uwtable
define internal noundef zeroext i1 @_ZL15HasNestArgumentPKN4llvm15MachineFunctionE(ptr noundef %0) #1 {
  %2 = alloca i1, align 1
  %3 = alloca ptr, align 8
  %4 = alloca ptr, align 8
  %5 = alloca ptr, align 8
  %6 = alloca ptr, align 8
  store ptr %0, ptr %3, align 8
  %7 = load ptr, ptr %3, align 8
  %8 = call noundef nonnull align 8 dereferenceable(136) ptr @_ZNK4llvm15MachineFunction11getFunctionEv(ptr noundef nonnull align 8 dereferenceable(1041) %7)
  store ptr %8, ptr %4, align 8
  %9 = load ptr, ptr %4, align 8
  %10 = call noundef ptr @_ZNK4llvm8Function9arg_beginEv(ptr noundef nonnull align 8 dereferenceable(136) %9)
  store ptr %10, ptr %5, align 8
  %11 = load ptr, ptr %4, align 8
  %12 = call noundef ptr @_ZNK4llvm8Function7arg_endEv(ptr noundef nonnull align 8 dereferenceable(136) %11)
  store ptr %12, ptr %6, align 8
  br label %13

13:                                               ; preds = %25, %1
  %14 = load ptr, ptr %5, align 8
  %15 = load ptr, ptr %6, align 8
  %16 = icmp ne ptr %14, %15
  br i1 %16, label %17, label %28

17:                                               ; preds = %13
  %18 = load ptr, ptr %5, align 8
  %19 = call noundef zeroext i1 @_ZNK4llvm8Argument11hasNestAttrEv(ptr noundef nonnull align 8 dereferenceable(40) %18)
  br i1 %19, label %20, label %24

20:                                               ; preds = %17
  %21 = load ptr, ptr %5, align 8
  %22 = call noundef zeroext i1 @_ZNK4llvm5Value9use_emptyEv(ptr noundef nonnull align 8 dereferenceable(24) %21)
  br i1 %22, label %24, label %23

23:                                               ; preds = %20
  store i1 true, ptr %2, align 1
  br label %29

24:                                               ; preds = %20, %17
  br label %25

25:                                               ; preds = %24
  %26 = load ptr, ptr %5, align 8
  %27 = getelementptr inbounds %"class.llvm::Argument", ptr %26, i32 1
  store ptr %27, ptr %5, align 8
  br label %13, !llvm.loop !26

28:                                               ; preds = %13
  store i1 false, ptr %2, align 1
  br label %29

29:                                               ; preds = %28, %23
  %30 = load i1, ptr %2, align 1
  ret i1 %30
}

; Function Attrs: mustprogress nounwind uwtable
define linkonce_odr hidden noundef i32 @_ZNK4llvm8Function14getCallingConvEv(ptr noundef nonnull align 8 dereferenceable(136) %0) #1 comdat align 2 {
  %2 = alloca ptr, align 8
  store ptr %0, ptr %2, align 8
  %3 = load ptr, ptr %2, align 8
  %4 = call noundef zeroext i16 @_ZNK4llvm5Value24getSubclassDataFromValueEv(ptr noundef nonnull align 8 dereferenceable(24) %3)
  %5 = zext i16 %4 to i32
  %6 = ashr i32 %5, 4
  %7 = and i32 %6, 1023
  ret i32 %7
}

; Function Attrs: mustprogress nounwind uwtable
define linkonce_odr hidden noundef nonnull align 8 dereferenceable(136) ptr @_ZNK4llvm15MachineFunction11getFunctionEv(ptr noundef nonnull align 8 dereferenceable(1041) %0) #1 comdat align 2 {
  %2 = alloca ptr, align 8
  store ptr %0, ptr %2, align 8
  %3 = load ptr, ptr %2, align 8
  %4 = getelementptr inbounds nuw %"class.llvm::MachineFunction", ptr %3, i32 0, i32 0
  %5 = load ptr, ptr %4, align 8
  ret ptr %5
}

; Function Attrs: mustprogress nounwind uwtable
define internal noundef i32 @_ZL18GetScratchRegisterbbRKN4llvm15MachineFunctionEb(i1 noundef zeroext %0, i1 noundef zeroext %1, ptr noundef nonnull align 8 dereferenceable(1041) %2, i1 noundef zeroext %3) #1 {
  %5 = alloca i32, align 4
  %6 = alloca i8, align 1
  %7 = alloca i8, align 1
  %8 = alloca ptr, align 8
  %9 = alloca i8, align 1
  %10 = alloca i32, align 4
  %11 = alloca i8, align 1
  %12 = zext i1 %0 to i8
  store i8 %12, ptr %6, align 1
  %13 = zext i1 %1 to i8
  store i8 %13, ptr %7, align 1
  store ptr %2, ptr %8, align 8
  %14 = zext i1 %3 to i8
  store i8 %14, ptr %9, align 1
  %15 = load ptr, ptr %8, align 8
  %16 = call noundef nonnull align 8 dereferenceable(136) ptr @_ZNK4llvm15MachineFunction11getFunctionEv(ptr noundef nonnull align 8 dereferenceable(1041) %15)
  %17 = call noundef i32 @_ZNK4llvm8Function14getCallingConvEv(ptr noundef nonnull align 8 dereferenceable(136) %16)
  store i32 %17, ptr %10, align 4
  %18 = load i32, ptr %10, align 4
  %19 = icmp eq i32 %18, 11
  br i1 %19, label %20, label %31

20:                                               ; preds = %4
  %21 = load i8, ptr %6, align 1
  %22 = trunc i8 %21 to i1
  br i1 %22, label %23, label %27

23:                                               ; preds = %20
  %24 = load i8, ptr %9, align 1
  %25 = trunc i8 %24 to i1
  %26 = select i1 %25, i32 125, i32 124
  store i32 %26, ptr %5, align 4
  br label %76

27:                                               ; preds = %20
  %28 = load i8, ptr %9, align 1
  %29 = trunc i8 %28 to i1
  %30 = select i1 %29, i32 24, i32 26
  store i32 %30, ptr %5, align 4
  br label %76

31:                                               ; preds = %4
  %32 = load i8, ptr %6, align 1
  %33 = trunc i8 %32 to i1
  br i1 %33, label %34, label %45

34:                                               ; preds = %31
  %35 = load i8, ptr %7, align 1
  %36 = trunc i8 %35 to i1
  br i1 %36, label %37, label %41

37:                                               ; preds = %34
  %38 = load i8, ptr %9, align 1
  %39 = trunc i8 %38 to i1
  %40 = select i1 %39, i32 122, i32 123
  store i32 %40, ptr %5, align 4
  br label %76

41:                                               ; preds = %34
  %42 = load i8, ptr %9, align 1
  %43 = trunc i8 %42 to i1
  %44 = select i1 %43, i32 170, i32 171
  store i32 %44, ptr %5, align 4
  br label %76

45:                                               ; preds = %31
  %46 = load ptr, ptr %8, align 8
  %47 = call noundef zeroext i1 @_ZL15HasNestArgumentPKN4llvm15MachineFunctionE(ptr noundef %46)
  %48 = zext i1 %47 to i8
  store i8 %48, ptr %11, align 1
  %49 = load i32, ptr %10, align 4
  %50 = icmp eq i32 %49, 65
  br i1 %50, label %57, label %51

51:                                               ; preds = %45
  %52 = load i32, ptr %10, align 4
  %53 = icmp eq i32 %52, 8
  br i1 %53, label %57, label %54

54:                                               ; preds = %51
  %55 = load i32, ptr %10, align 4
  %56 = icmp eq i32 %55, 18
  br i1 %56, label %57, label %65

57:                                               ; preds = %54, %51, %45
  %58 = load i8, ptr %11, align 1
  %59 = trunc i8 %58 to i1
  br i1 %59, label %60, label %61

60:                                               ; preds = %57
  call void @_ZN4llvm18report_fatal_errorEPKcb(ptr noundef @.str.32, i1 noundef zeroext true) #14
  unreachable

61:                                               ; preds = %57
  %62 = load i8, ptr %9, align 1
  %63 = trunc i8 %62 to i1
  %64 = select i1 %63, i32 22, i32 25
  store i32 %64, ptr %5, align 4
  br label %76

65:                                               ; preds = %54
  %66 = load i8, ptr %11, align 1
  %67 = trunc i8 %66 to i1
  br i1 %67, label %68, label %72

68:                                               ; preds = %65
  %69 = load i8, ptr %9, align 1
  %70 = trunc i8 %69 to i1
  %71 = select i1 %70, i32 27, i32 22
  store i32 %71, ptr %5, align 4
  br label %76

72:                                               ; preds = %65
  %73 = load i8, ptr %9, align 1
  %74 = trunc i8 %73 to i1
  %75 = select i1 %74, i32 25, i32 22
  store i32 %75, ptr %5, align 4
  br label %76

76:                                               ; preds = %72, %68, %61, %41, %37, %27, %23
  %77 = load i32, ptr %5, align 4
  ret i32 %77
}