; Function Attrs: mustprogress nounwind uwtable
define internal fastcc noundef range(i32 22, 172) i32 @_ZL18GetScratchRegisterbbRKN4llvm15MachineFunctionEb(i1 noundef zeroext %0, i1 noundef zeroext %1, ptr %.0.val, i1 noundef zeroext %2) unnamed_addr #2 {
  %4 = getelementptr inbounds nuw i8, ptr %.0.val, i64 2
  %5 = load i16, ptr %4, align 2
  %6 = lshr i16 %5, 4
  %7 = and i16 %6, 1023
  %8 = icmp eq i16 %7, 11
  br i1 %8, label %9, label %14

9:                                                ; preds = %3
  br i1 %0, label %10, label %12

10:                                               ; preds = %9
  %11 = select i1 %2, i32 125, i32 124
  br label %49

12:                                               ; preds = %9
  %13 = select i1 %2, i32 24, i32 26
  br label %49

14:                                               ; preds = %3
  br i1 %0, label %15, label %20

15:                                               ; preds = %14
  br i1 %1, label %16, label %18

16:                                               ; preds = %15
  %17 = select i1 %2, i32 122, i32 123
  br label %49

18:                                               ; preds = %15
  %19 = select i1 %2, i32 170, i32 171
  br label %49

20:                                               ; preds = %14
  %21 = and i16 %5, 1
  %.not.i.i.i = icmp eq i16 %21, 0
  br i1 %.not.i.i.i, label %_ZNK4llvm8Function9arg_beginEv.exit.thread.i, label %_ZNK4llvm8Function9arg_beginEv.exit.i

_ZNK4llvm8Function9arg_beginEv.exit.thread.i:     ; preds = %20
  %22 = getelementptr inbounds nuw i8, ptr %.0.val, i64 96
  %23 = load ptr, ptr %22, align 8
  br label %_ZNK4llvm8Function7arg_endEv.exit.i

_ZNK4llvm8Function9arg_beginEv.exit.i:            ; preds = %20
  tail call void @_ZNK4llvm8Function18BuildLazyArgumentsEv(ptr noundef nonnull align 8 dereferenceable(136) %.0.val) #23
  %.pre.i = load i16, ptr %4, align 2
  %.pre7.i = and i16 %.pre.i, 1
  %24 = icmp eq i16 %.pre7.i, 0
  %25 = getelementptr inbounds nuw i8, ptr %.0.val, i64 96
  %26 = load ptr, ptr %25, align 8
  br i1 %24, label %_ZNK4llvm8Function7arg_endEv.exit.i, label %27

27:                                               ; preds = %_ZNK4llvm8Function9arg_beginEv.exit.i
  tail call void @_ZNK4llvm8Function18BuildLazyArgumentsEv(ptr noundef nonnull align 8 dereferenceable(136) %.0.val) #23
  %.pre6.i = load ptr, ptr %25, align 8
  br label %_ZNK4llvm8Function7arg_endEv.exit.i

_ZNK4llvm8Function7arg_endEv.exit.i:              ; preds = %27, %_ZNK4llvm8Function9arg_beginEv.exit.i, %_ZNK4llvm8Function9arg_beginEv.exit.thread.i
  %28 = phi ptr [ %26, %_ZNK4llvm8Function9arg_beginEv.exit.i ], [ %26, %27 ], [ %23, %_ZNK4llvm8Function9arg_beginEv.exit.thread.i ]
  %29 = phi ptr [ %26, %_ZNK4llvm8Function9arg_beginEv.exit.i ], [ %.pre6.i, %27 ], [ %23, %_ZNK4llvm8Function9arg_beginEv.exit.thread.i ]
  %30 = getelementptr inbounds nuw i8, ptr %.0.val, i64 104
  %31 = load i64, ptr %30, align 8
  %32 = getelementptr inbounds %"class.llvm::Argument", ptr %29, i64 %31
  %.not1.not.i = icmp eq ptr %28, %32
  br i1 %.not1.not.i, label %_ZL15HasNestArgumentPKN4llvm15MachineFunctionE.exit, label %.lr.ph.i

.lr.ph.i:                                         ; preds = %_ZNK4llvm8Function7arg_endEv.exit.i, %38
  %.092.i = phi ptr [ %39, %38 ], [ %28, %_ZNK4llvm8Function7arg_endEv.exit.i ]
  %33 = tail call noundef zeroext i1 @_ZNK4llvm8Argument11hasNestAttrEv(ptr noundef nonnull align 8 dereferenceable(40) %.092.i) #23
  br i1 %33, label %34, label %38

34:                                               ; preds = %.lr.ph.i
  %35 = getelementptr inbounds nuw i8, ptr %.092.i, i64 16
  %36 = load ptr, ptr %35, align 8
  %37 = icmp eq ptr %36, null
  br i1 %37, label %38, label %_ZL15HasNestArgumentPKN4llvm15MachineFunctionE.exit

38:                                               ; preds = %34, %.lr.ph.i
  %39 = getelementptr inbounds i8, ptr %.092.i, i64 40
  %.not.not.i = icmp eq ptr %39, %32
  br i1 %.not.not.i, label %_ZL15HasNestArgumentPKN4llvm15MachineFunctionE.exit, label %.lr.ph.i, !llvm.loop !939

_ZL15HasNestArgumentPKN4llvm15MachineFunctionE.exit: ; preds = %34, %38, %_ZNK4llvm8Function7arg_endEv.exit.i
  %.not.lcssa.i = phi i1 [ false, %_ZNK4llvm8Function7arg_endEv.exit.i ], [ true, %34 ], [ false, %38 ]
  switch i16 %7, label %44 [
    i16 65, label %40
    i16 18, label %40
    i16 8, label %40
  ]

40:                                               ; preds = %_ZL15HasNestArgumentPKN4llvm15MachineFunctionE.exit, %_ZL15HasNestArgumentPKN4llvm15MachineFunctionE.exit, %_ZL15HasNestArgumentPKN4llvm15MachineFunctionE.exit
  br i1 %.not.lcssa.i, label %41, label %42

41:                                               ; preds = %40
  tail call void @_ZN4llvm18report_fatal_errorEPKcb(ptr noundef nonnull @.str.32, i1 noundef zeroext true) #24
  unreachable

42:                                               ; preds = %40
  %43 = select i1 %2, i32 22, i32 25
  br label %49

44:                                               ; preds = %_ZL15HasNestArgumentPKN4llvm15MachineFunctionE.exit
  br i1 %.not.lcssa.i, label %45, label %47

45:                                               ; preds = %44
  %46 = select i1 %2, i32 27, i32 22
  br label %49

47:                                               ; preds = %44
  %48 = select i1 %2, i32 25, i32 22
  br label %49

49:                                               ; preds = %47, %45, %42, %18, %16, %12, %10
  %.0 = phi i32 [ %11, %10 ], [ %13, %12 ], [ %17, %16 ], [ %19, %18 ], [ %43, %42 ], [ %46, %45 ], [ %48, %47 ]
  ret i32 %.0
}